target datalayout = "e-m:e-p270:32:32-p271:32:32-p272:64:64-i64:64-i128:128-f80:128-n8:16:32:64-S128"
target triple = "x86_64-pc-linux-gnu"

%struct.H5O_linfo_t = type { i8, i8, i64, i64, i64, i64, i64 }
%struct.H5O_loc_t = type { ptr, i64, i8 }

@H5G_init_g = external global i8, align 1
@H5_libterm_g = external global i8, align 1
@.str = private unnamed_addr constant [100 x i8] c"generated/home/dtcxzyw/WorkSpace/Projects/compilers/llvm-opt-benchmark/bench/hdf5/hdf5/src/H5Gobj.c\00", align 1
@H5E_SYM_g = external global i64, align 8
@H5E_CANTGET_g = external global i64, align 8
@__func__.H5G__obj_get_linfo = private unnamed_addr constant [19 x i8] c"H5G__obj_get_linfo\00", align 1
@.str.12 = private unnamed_addr constant [29 x i8] c"unable to read object header\00", align 1
@.str.13 = private unnamed_addr constant [30 x i8] c"link info message not present\00", align 1
@H5E_CANTOPENOBJ_g = external global i64, align 8
@.str.14 = private unnamed_addr constant [40 x i8] c"unable to open v2 B-tree for name index\00", align 1
@.str.15 = private unnamed_addr constant [37 x i8] c"can't retrieve # of records in index\00", align 1
@.str.16 = private unnamed_addr constant [37 x i8] c"can't retrieve # of links for object\00", align 1
@H5E_CLOSEERROR_g = external global i64, align 8
@.str.17 = private unnamed_addr constant [37 x i8] c"can't close v2 B-tree for name index\00", align 1

; Function Attrs: nounwind uwtable
define i32 @H5G__obj_get_linfo(ptr noundef %0, ptr noundef %1) #0 {
  %3 = alloca ptr, align 8
  %4 = alloca ptr, align 8
  %5 = alloca ptr, align 8
  %6 = alloca i32, align 4
  %7 = alloca i64, align 8
  %8 = alloca i8, align 1
  store ptr %0, ptr %3, align 8, !tbaa !10
  store ptr %1, ptr %4, align 8, !tbaa !26
  call void @llvm.lifetime.start.p0(i64 8, ptr %5) #6
  store ptr null, ptr %5, align 8, !tbaa !54
  call void @llvm.lifetime.start.p0(i64 4, ptr %6) #6
  store i32 -1, ptr %6, align 4, !tbaa !12
  call void @llvm.lifetime.start.p0(i64 8, ptr %7) #6
  store i64 -1, ptr %7, align 8, !tbaa !23
  call void @llvm.lifetime.start.p0(i64 1, ptr %8) #6
  store i8 0, ptr %8, align 1, !tbaa !14
  %9 = load ptr, ptr %3, align 8, !tbaa !10
  %10 = getelementptr inbounds nuw %struct.H5O_loc_t, ptr %9, i32 0, i32 1
  %11 = load i64, ptr %10, align 8, !tbaa !56
  call void @H5AC_tag(i64 noundef %11, ptr noundef %7)
  %12 = load i8, ptr @H5G_init_g, align 1, !tbaa !14, !range !16, !noundef !17
  %13 = trunc i8 %12 to i1
  br i1 %13, label %18, label %14

14:                                               ; preds = %2
  %15 = load i8, ptr @H5_libterm_g, align 1, !tbaa !14, !range !16, !noundef !17
  %16 = trunc i8 %15 to i1
  %17 = xor i1 %16, true
  br label %18

18:                                               ; preds = %14, %2
  %19 = phi i1 [ true, %2 ], [ %17, %14 ]
  %20 = xor i1 %19, true
  %21 = xor i1 %20, true
  %22 = zext i1 %21 to i32
  %23 = sext i32 %22 to i64
  %24 = call i64 @llvm.expect.i64(i64 %23, i64 1)
  %25 = icmp ne i64 %24, 0
  br i1 %25, label %26, label %193

26:                                               ; preds = %18
  %27 = load ptr, ptr %3, align 8, !tbaa !10
  %28 = call i32 @H5O_msg_exists(ptr noundef %27, i32 noundef 2)
  store i32 %28, ptr %6, align 4, !tbaa !12
  %29 = icmp slt i32 %28, 0
  br i1 %29, label %30, label %49

30:                                               ; preds = %26
  br label %31

31:                                               ; preds = %30
  br label %32

32:                                               ; preds = %31
  br label %33

33:                                               ; preds = %32
  %34 = load i64, ptr @H5E_SYM_g, align 8, !tbaa !23
  %35 = load i64, ptr @H5E_CANTGET_g, align 8, !tbaa !23
  %36 = call i32 (ptr, ptr, i32, i64, i64, ptr, ...) @H5E_printf_stack(ptr noundef @.str, ptr noundef @__func__.H5G__obj_get_linfo, i32 noundef 310, i64 noundef %34, i64 noundef %35, ptr noundef @.str.12)
  br label %37

37:                                               ; preds = %33
  br label %38

38:                                               ; preds = %37
  store i8 1, ptr %8, align 1, !tbaa !14
  %39 = load i8, ptr %8, align 1, !tbaa !14, !range !16, !noundef !17
  %40 = trunc i8 %39 to i1
  %41 = zext i1 %40 to i8
  store i8 %41, ptr %8, align 1, !tbaa !14
  br label %42

42:                                               ; preds = %38
  br label %43

43:                                               ; preds = %42
  br label %44

44:                                               ; preds = %43
  store i32 -1, ptr %6, align 4, !tbaa !12
  br label %169

45:                                               ; No predecessors!
  br label %46

46:                                               ; preds = %45
  br label %47

47:                                               ; preds = %46
  br label %48

48:                                               ; preds = %47
  br label %49

49:                                               ; preds = %48, %26
  %50 = load i32, ptr %6, align 4, !tbaa !12
  %51 = icmp ne i32 %50, 0
  br i1 %51, label %52, label %168

52:                                               ; preds = %49
  %53 = load ptr, ptr %3, align 8, !tbaa !10
  %54 = load ptr, ptr %4, align 8, !tbaa !26
  %55 = call ptr @H5O_msg_read(ptr noundef %53, i32 noundef 2, ptr noundef %54)
  %56 = icmp eq ptr null, %55
  br i1 %56, label %57, label %76

57:                                               ; preds = %52
  br label %58

58:                                               ; preds = %57
  br label %59

59:                                               ; preds = %58
  br label %60

60:                                               ; preds = %59
  %61 = load i64, ptr @H5E_SYM_g, align 8, !tbaa !23
  %62 = load i64, ptr @H5E_CANTGET_g, align 8, !tbaa !23
  %63 = call i32 (ptr, ptr, i32, i64, i64, ptr, ...) @H5E_printf_stack(ptr noundef @.str, ptr noundef @__func__.H5G__obj_get_linfo, i32 noundef 314, i64 noundef %61, i64 noundef %62, ptr noundef @.str.13)
  br label %64

64:                                               ; preds = %60
  br label %65

65:                                               ; preds = %64
  store i8 1, ptr %8, align 1, !tbaa !14
  %66 = load i8, ptr %8, align 1, !tbaa !14, !range !16, !noundef !17
  %67 = trunc i8 %66 to i1
  %68 = zext i1 %67 to i8
  store i8 %68, ptr %8, align 1, !tbaa !14
  br label %69

69:                                               ; preds = %65
  br label %70

70:                                               ; preds = %69
  br label %71

71:                                               ; preds = %70
  store i32 -1, ptr %6, align 4, !tbaa !12
  br label %169

72:                                               ; No predecessors!
  br label %73

73:                                               ; preds = %72
  br label %74

74:                                               ; preds = %73
  br label %75

75:                                               ; preds = %74
  br label %76

76:                                               ; preds = %75, %52
  %77 = load ptr, ptr %4, align 8, !tbaa !26
  %78 = getelementptr inbounds nuw %struct.H5O_linfo_t, ptr %77, i32 0, i32 4
  %79 = load i64, ptr %78, align 8, !tbaa !58
  %80 = icmp eq i64 %79, -1
  br i1 %80, label %81, label %167

81:                                               ; preds = %76
  %82 = load ptr, ptr %4, align 8, !tbaa !26
  %83 = getelementptr inbounds nuw %struct.H5O_linfo_t, ptr %82, i32 0, i32 5
  %84 = load i64, ptr %83, align 8, !tbaa !59
  %85 = icmp ne i64 %84, -1
  br i1 %85, label %86, label %140

86:                                               ; preds = %81
  %87 = load ptr, ptr %3, align 8, !tbaa !10
  %88 = getelementptr inbounds nuw %struct.H5O_loc_t, ptr %87, i32 0, i32 0
  %89 = load ptr, ptr %88, align 8, !tbaa !60
  %90 = load ptr, ptr %4, align 8, !tbaa !26
  %91 = getelementptr inbounds nuw %struct.H5O_linfo_t, ptr %90, i32 0, i32 6
  %92 = load i64, ptr %91, align 8, !tbaa !61
  %93 = call ptr @H5B2_open(ptr noundef %89, i64 noundef %92, ptr noundef null)
  store ptr %93, ptr %5, align 8, !tbaa !54
  %94 = icmp eq ptr null, %93
  br i1 %94, label %95, label %114

95:                                               ; preds = %86
  br label %96

96:                                               ; preds = %95
  br label %97

97:                                               ; preds = %96
  br label %98

98:                                               ; preds = %97
  %99 = load i64, ptr @H5E_SYM_g, align 8, !tbaa !23
  %100 = load i64, ptr @H5E_CANTOPENOBJ_g, align 8, !tbaa !23
  %101 = call i32 (ptr, ptr, i32, i64, i64, ptr, ...) @H5E_printf_stack(ptr noundef @.str, ptr noundef @__func__.H5G__obj_get_linfo, i32 noundef 322, i64 noundef %99, i64 noundef %100, ptr noundef @.str.14)
  br label %102

102:                                              ; preds = %98
  br label %103

103:                                              ; preds = %102
  store i8 1, ptr %8, align 1, !tbaa !14
  %104 = load i8, ptr %8, align 1, !tbaa !14, !range !16, !noundef !17
  %105 = trunc i8 %104 to i1
  %106 = zext i1 %105 to i8
  store i8 %106, ptr %8, align 1, !tbaa !14
  br label %107

107:                                              ; preds = %103
  br label %108

108:                                              ; preds = %107
  br label %109

109:                                              ; preds = %108
  store i32 -1, ptr %6, align 4, !tbaa !12
  br label %169

110:                                              ; No predecessors!
  br label %111

111:                                              ; preds = %110
  br label %112

112:                                              ; preds = %111
  br label %113

113:                                              ; preds = %112
  br label %114

114:                                              ; preds = %113, %86
  %115 = load ptr, ptr %5, align 8, !tbaa !54
  %116 = load ptr, ptr %4, align 8, !tbaa !26
  %117 = getelementptr inbounds nuw %struct.H5O_linfo_t, ptr %116, i32 0, i32 4
  %118 = call i32 @H5B2_get_nrec(ptr noundef %115, ptr noundef %117)
  %119 = icmp slt i32 %118, 0
  br i1 %119, label %120, label %139

120:                                              ; preds = %114
  br label %121

121:                                              ; preds = %120
  br label %122

122:                                              ; preds = %121
  br label %123

123:                                              ; preds = %122
  %124 = load i64, ptr @H5E_SYM_g, align 8, !tbaa !23
  %125 = load i64, ptr @H5E_CANTGET_g, align 8, !tbaa !23
  %126 = call i32 (ptr, ptr, i32, i64, i64, ptr, ...) @H5E_printf_stack(ptr noundef @.str, ptr noundef @__func__.H5G__obj_get_linfo, i32 noundef 327, i64 noundef %124, i64 noundef %125, ptr noundef @.str.15)
  br label %127

127:                                              ; preds = %123
  br label %128

128:                                              ; preds = %127
  store i8 1, ptr %8, align 1, !tbaa !14
  %129 = load i8, ptr %8, align 1, !tbaa !14, !range !16, !noundef !17
  %130 = trunc i8 %129 to i1
  %131 = zext i1 %130 to i8
  store i8 %131, ptr %8, align 1, !tbaa !14
  br label %132

132:                                              ; preds = %128
  br label %133

133:                                              ; preds = %132
  br label %134

134:                                              ; preds = %133
  store i32 -1, ptr %6, align 4, !tbaa !12
  br label %169

135:                                              ; No predecessors!
  br label %136

136:                                              ; preds = %135
  br label %137

137:                                              ; preds = %136
  br label %138

138:                                              ; preds = %137
  br label %139

139:                                              ; preds = %138, %114
  br label %166

140:                                              ; preds = %81
  %141 = load ptr, ptr %3, align 8, !tbaa !10
  %142 = load ptr, ptr %4, align 8, !tbaa !26
  %143 = getelementptr inbounds nuw %struct.H5O_linfo_t, ptr %142, i32 0, i32 4
  %144 = call i32 @H5O_get_nlinks(ptr noundef %141, ptr noundef %143)
  %145 = icmp slt i32 %144, 0
  br i1 %145, label %146, label %165

146:                                              ; preds = %140
  br label %147

147:                                              ; preds = %146
  br label %148

148:                                              ; preds = %147
  br label %149

149:                                              ; preds = %148
  %150 = load i64, ptr @H5E_SYM_g, align 8, !tbaa !23
  %151 = load i64, ptr @H5E_CANTGET_g, align 8, !tbaa !23
  %152 = call i32 (ptr, ptr, i32, i64, i64, ptr, ...) @H5E_printf_stack(ptr noundef @.str, ptr noundef @__func__.H5G__obj_get_linfo, i32 noundef 332, i64 noundef %150, i64 noundef %151, ptr noundef @.str.16)
  br label %153

153:                                              ; preds = %149
  br label %154

154:                                              ; preds = %153
  store i8 1, ptr %8, align 1, !tbaa !14
  %155 = load i8, ptr %8, align 1, !tbaa !14, !range !16, !noundef !17
  %156 = trunc i8 %155 to i1
  %157 = zext i1 %156 to i8
  store i8 %157, ptr %8, align 1, !tbaa !14
  br label %158

158:                                              ; preds = %154
  br label %159

159:                                              ; preds = %158
  br label %160

160:                                              ; preds = %159
  store i32 -1, ptr %6, align 4, !tbaa !12
  br label %169

161:                                              ; No predecessors!
  br label %162

162:                                              ; preds = %161
  br label %163

163:                                              ; preds = %162
  br label %164

164:                                              ; preds = %163
  br label %165

165:                                              ; preds = %164, %140
  br label %166

166:                                              ; preds = %165, %139
  br label %167

167:                                              ; preds = %166, %76
  br label %168

168:                                              ; preds = %167, %49
  br label %169

169:                                              ; preds = %168, %160, %134, %109, %71, %44
  %170 = load ptr, ptr %5, align 8, !tbaa !54
  %171 = icmp ne ptr %170, null
  br i1 %171, label %172, label %192

172:                                              ; preds = %169
  %173 = load ptr, ptr %5, align 8, !tbaa !54
  %174 = call i32 @H5B2_close(ptr noundef %173)
  %175 = icmp slt i32 %174, 0
  br i1 %175, label %176, label %192

176:                                              ; preds = %172
  br label %177

177:                                              ; preds = %176
  br label %178

178:                                              ; preds = %177
  br label %179

179:                                              ; preds = %178
  %180 = load i64, ptr @H5E_SYM_g, align 8, !tbaa !23
  %181 = load i64, ptr @H5E_CLOSEERROR_g, align 8, !tbaa !23
  %182 = call i32 (ptr, ptr, i32, i64, i64, ptr, ...) @H5E_printf_stack(ptr noundef @.str, ptr noundef @__func__.H5G__obj_get_linfo, i32 noundef 340, i64 noundef %180, i64 noundef %181, ptr noundef @.str.17)
  br label %183

183:                                              ; preds = %179
  br label %184

184:                                              ; preds = %183
  store i8 1, ptr %8, align 1, !tbaa !14
  %185 = load i8, ptr %8, align 1, !tbaa !14, !range !16, !noundef !17
  %186 = trunc i8 %185 to i1
  %187 = zext i1 %186 to i8
  store i8 %187, ptr %8, align 1, !tbaa !14
  br label %188

188:                                              ; preds = %184
  br label %189

189:                                              ; preds = %188
  store i32 -1, ptr %6, align 4, !tbaa !12
  br label %190

190:                                              ; preds = %189
  br label %191

191:                                              ; preds = %190
  br label %192

192:                                              ; preds = %191, %172, %169
  br label %193

193:                                              ; preds = %192, %18
  %194 = load i64, ptr %7, align 8, !tbaa !23
  call void @H5AC_tag(i64 noundef %194, ptr noundef null)
  %195 = load i32, ptr %6, align 4, !tbaa !12
  call void @llvm.lifetime.end.p0(i64 1, ptr %8) #6
  call void @llvm.lifetime.end.p0(i64 8, ptr %7) #6
  call void @llvm.lifetime.end.p0(i64 4, ptr %6) #6
  call void @llvm.lifetime.end.p0(i64 8, ptr %5) #6
  ret i32 %195
}