; Function Attrs: nounwind uwtable
define range(i32 -1, -2147483648) i32 @H5G__obj_get_linfo(ptr noundef %0, ptr noundef %1) local_unnamed_addr #0 {
  %3 = alloca i64, align 8
  call void @llvm.lifetime.start.p0(i64 8, ptr nonnull %3) #5
  store i64 -1, ptr %3, align 8, !tbaa !14
  %4 = getelementptr inbounds nuw i8, ptr %0, i64 8
  %5 = load i64, ptr %4, align 8, !tbaa !41
  call void @H5AC_tag(i64 noundef %5, ptr noundef nonnull %3) #5
  %6 = load i8, ptr @H5G_init_g, align 1, !tbaa !3, !range !7, !noundef !8
  %7 = trunc nuw i8 %6 to i1
  %8 = load i8, ptr @H5_libterm_g, align 1, !range !7
  %9 = trunc nuw i8 %8 to i1
  %10 = xor i1 %9, true
  %11 = select i1 %7, i1 true, i1 %10
  br i1 %11, label %12, label %.thread, !prof !9

12:                                               ; preds = %2
  %13 = call i32 @H5O_msg_exists(ptr noundef nonnull %0, i32 noundef 2) #5
  %14 = icmp slt i32 %13, 0
  br i1 %14, label %15, label %19

15:                                               ; preds = %12
  %16 = load i64, ptr @H5E_SYM_g, align 8, !tbaa !14
  %17 = load i64, ptr @H5E_CANTGET_g, align 8, !tbaa !14
  %18 = call i32 (ptr, ptr, i32, i64, i64, ptr, ...) @H5E_printf_stack(ptr noundef nonnull @.str, ptr noundef nonnull @__func__.H5G__obj_get_linfo, i32 noundef 310, i64 noundef %16, i64 noundef %17, ptr noundef nonnull @.str.12) #5
  br label %.thread

19:                                               ; preds = %12
  %.not = icmp eq i32 %13, 0
  br i1 %.not, label %.thread, label %20

20:                                               ; preds = %19
  %21 = call ptr @H5O_msg_read(ptr noundef nonnull %0, i32 noundef 2, ptr noundef %1) #5
  %22 = icmp eq ptr %21, null
  br i1 %22, label %23, label %27

23:                                               ; preds = %20
  %24 = load i64, ptr @H5E_SYM_g, align 8, !tbaa !14
  %25 = load i64, ptr @H5E_CANTGET_g, align 8, !tbaa !14
  %26 = call i32 (ptr, ptr, i32, i64, i64, ptr, ...) @H5E_printf_stack(ptr noundef nonnull @.str, ptr noundef nonnull @__func__.H5G__obj_get_linfo, i32 noundef 314, i64 noundef %24, i64 noundef %25, ptr noundef nonnull @.str.13) #5
  br label %.thread

27:                                               ; preds = %20
  %28 = getelementptr inbounds nuw i8, ptr %1, i64 24
  %29 = load i64, ptr %28, align 8, !tbaa !43
  %30 = icmp eq i64 %29, -1
  br i1 %30, label %31, label %.thread

31:                                               ; preds = %27
  %32 = getelementptr inbounds nuw i8, ptr %1, i64 32
  %33 = load i64, ptr %32, align 8, !tbaa !44
  %.not25 = icmp eq i64 %33, -1
  br i1 %.not25, label %51, label %34

34:                                               ; preds = %31
  %35 = load ptr, ptr %0, align 8, !tbaa !45
  %36 = getelementptr inbounds nuw i8, ptr %1, i64 40
  %37 = load i64, ptr %36, align 8, !tbaa !46
  %38 = call ptr @H5B2_open(ptr noundef %35, i64 noundef %37, ptr noundef null) #5
  %39 = icmp eq ptr %38, null
  br i1 %39, label %40, label %44

40:                                               ; preds = %34
  %41 = load i64, ptr @H5E_SYM_g, align 8, !tbaa !14
  %42 = load i64, ptr @H5E_CANTOPENOBJ_g, align 8, !tbaa !14
  %43 = call i32 (ptr, ptr, i32, i64, i64, ptr, ...) @H5E_printf_stack(ptr noundef nonnull @.str, ptr noundef nonnull @__func__.H5G__obj_get_linfo, i32 noundef 322, i64 noundef %41, i64 noundef %42, ptr noundef nonnull @.str.14) #5
  br label %.thread

44:                                               ; preds = %34
  %45 = call i32 @H5B2_get_nrec(ptr noundef nonnull %38, ptr noundef nonnull %28) #5
  %46 = icmp slt i32 %45, 0
  br i1 %46, label %47, label %58

47:                                               ; preds = %44
  %48 = load i64, ptr @H5E_SYM_g, align 8, !tbaa !14
  %49 = load i64, ptr @H5E_CANTGET_g, align 8, !tbaa !14
  %50 = call i32 (ptr, ptr, i32, i64, i64, ptr, ...) @H5E_printf_stack(ptr noundef nonnull @.str, ptr noundef nonnull @__func__.H5G__obj_get_linfo, i32 noundef 327, i64 noundef %48, i64 noundef %49, ptr noundef nonnull @.str.15) #5
  br label %58

51:                                               ; preds = %31
  %52 = call i32 @H5O_get_nlinks(ptr noundef nonnull %0, ptr noundef nonnull %28) #5
  %53 = icmp slt i32 %52, 0
  br i1 %53, label %54, label %.thread

54:                                               ; preds = %51
  %55 = load i64, ptr @H5E_SYM_g, align 8, !tbaa !14
  %56 = load i64, ptr @H5E_CANTGET_g, align 8, !tbaa !14
  %57 = call i32 (ptr, ptr, i32, i64, i64, ptr, ...) @H5E_printf_stack(ptr noundef nonnull @.str, ptr noundef nonnull @__func__.H5G__obj_get_linfo, i32 noundef 332, i64 noundef %55, i64 noundef %56, ptr noundef nonnull @.str.16) #5
  br label %.thread

58:                                               ; preds = %47, %44
  %.1 = phi i32 [ -1, %47 ], [ %13, %44 ]
  %59 = call i32 @H5B2_close(ptr noundef nonnull %38) #5
  %60 = icmp slt i32 %59, 0
  br i1 %60, label %61, label %.thread

61:                                               ; preds = %58
  %62 = load i64, ptr @H5E_SYM_g, align 8, !tbaa !14
  %63 = load i64, ptr @H5E_CLOSEERROR_g, align 8, !tbaa !14
  %64 = call i32 (ptr, ptr, i32, i64, i64, ptr, ...) @H5E_printf_stack(ptr noundef nonnull @.str, ptr noundef nonnull @__func__.H5G__obj_get_linfo, i32 noundef 340, i64 noundef %62, i64 noundef %63, ptr noundef nonnull @.str.17) #5
  br label %.thread

.thread:                                          ; preds = %19, %27, %51, %54, %40, %23, %15, %58, %61, %2
  %.0 = phi i32 [ -1, %61 ], [ %.1, %58 ], [ -1, %2 ], [ 0, %19 ], [ %13, %27 ], [ %13, %51 ], [ -1, %54 ], [ -1, %40 ], [ -1, %23 ], [ -1, %15 ]
  %65 = load i64, ptr %3, align 8, !tbaa !14
  call void @H5AC_tag(i64 noundef %65, ptr noundef null) #5
  call void @llvm.lifetime.end.p0(i64 8, ptr nonnull %3) #5
  ret i32 %.0
}